target datalayout = "e-m:e-p270:32:32-p271:32:32-p272:64:64-i64:64-i128:128-f80:128-n8:16:32:64-S128"
target triple = "x86_64-pc-linux-gnu"

%struct.anon = type { i64, double, double, double, double, double, double, double, double, double, double, double }

@.str.26 = private unnamed_addr constant [19 x i8] c"N_VGetArrayPointer\00", align 1
@stderr = external global ptr, align 8
@.str.76 = private unnamed_addr constant [55 x i8] c"\0ASUNDIALS_ERROR: %s() failed - returned NULL pointer\0A\0A\00", align 1
@.str.77 = private unnamed_addr constant [46 x i8] c"\0ASUNDIALS_ERROR: %s() failed with flag = %d\0A\0A\00", align 1
@.str.78 = private unnamed_addr constant [53 x i8] c"\0AMEMORY_ERROR: %s() failed - returned NULL pointer\0A\0A\00", align 1

; Function Attrs: nounwind uwtable
define internal i32 @check_retval(ptr noundef %0, ptr noundef %1, i32 noundef %2) #0 {
  %4 = alloca i32, align 4
  %5 = alloca ptr, align 8
  %6 = alloca ptr, align 8
  %7 = alloca i32, align 4
  %8 = alloca ptr, align 8
  %9 = alloca i32, align 4
  store ptr %0, ptr %5, align 8, !tbaa !17
  store ptr %1, ptr %6, align 8, !tbaa !32
  store i32 %2, ptr %7, align 4, !tbaa !4
  call void @llvm.lifetime.start.p0(i64 8, ptr %8) #8
  %10 = load i32, ptr %7, align 4, !tbaa !4
  %11 = icmp eq i32 %10, 0
  br i1 %11, label %12, label %19

12:                                               ; preds = %3
  %13 = load ptr, ptr %5, align 8, !tbaa !17
  %14 = icmp eq ptr %13, null
  br i1 %14, label %15, label %19

15:                                               ; preds = %12
  %16 = load ptr, ptr @stderr, align 8, !tbaa !55
  %17 = load ptr, ptr %6, align 8, !tbaa !32
  %18 = call i32 (ptr, ptr, ...) @fprintf(ptr noundef %16, ptr noundef @.str.76, ptr noundef %17) #8
  store i32 1, ptr %4, align 4
  store i32 1, ptr %9, align 4
  br label %47

19:                                               ; preds = %12, %3
  %20 = load i32, ptr %7, align 4, !tbaa !4
  %21 = icmp eq i32 %20, 1
  br i1 %21, label %22, label %34

22:                                               ; preds = %19
  %23 = load ptr, ptr %5, align 8, !tbaa !17
  store ptr %23, ptr %8, align 8, !tbaa !57
  %24 = load ptr, ptr %8, align 8, !tbaa !57
  %25 = load i32, ptr %24, align 4, !tbaa !4
  %26 = icmp slt i32 %25, 0
  br i1 %26, label %27, label %33

27:                                               ; preds = %22
  %28 = load ptr, ptr @stderr, align 8, !tbaa !55
  %29 = load ptr, ptr %6, align 8, !tbaa !32
  %30 = load ptr, ptr %8, align 8, !tbaa !57
  %31 = load i32, ptr %30, align 4, !tbaa !4
  %32 = call i32 (ptr, ptr, ...) @fprintf(ptr noundef %28, ptr noundef @.str.77, ptr noundef %29, i32 noundef %31) #8
  store i32 1, ptr %4, align 4
  store i32 1, ptr %9, align 4
  br label %47

33:                                               ; preds = %22
  br label %45

34:                                               ; preds = %19
  %35 = load i32, ptr %7, align 4, !tbaa !4
  %36 = icmp eq i32 %35, 2
  br i1 %36, label %37, label %44

37:                                               ; preds = %34
  %38 = load ptr, ptr %5, align 8, !tbaa !17
  %39 = icmp eq ptr %38, null
  br i1 %39, label %40, label %44

40:                                               ; preds = %37
  %41 = load ptr, ptr @stderr, align 8, !tbaa !55
  %42 = load ptr, ptr %6, align 8, !tbaa !32
  %43 = call i32 (ptr, ptr, ...) @fprintf(ptr noundef %41, ptr noundef @.str.78, ptr noundef %42) #8
  store i32 1, ptr %4, align 4
  store i32 1, ptr %9, align 4
  br label %47

44:                                               ; preds = %37, %34
  br label %45

45:                                               ; preds = %44, %33
  br label %46

46:                                               ; preds = %45
  store i32 0, ptr %4, align 4
  store i32 1, ptr %9, align 4
  br label %47

47:                                               ; preds = %46, %40, %27, %15
  call void @llvm.lifetime.end.p0(i64 8, ptr %8) #8
  %48 = load i32, ptr %4, align 4
  ret i32 %48
}

; Function Attrs: nounwind uwtable
define internal i32 @fse(double noundef %0, ptr noundef %1, ptr noundef %2, ptr noundef %3) #0 {
  %5 = alloca i32, align 4
  %6 = alloca double, align 8
  %7 = alloca ptr, align 8
  %8 = alloca ptr, align 8
  %9 = alloca ptr, align 8
  %10 = alloca ptr, align 8
  %11 = alloca i64, align 8
  %12 = alloca double, align 8
  %13 = alloca double, align 8
  %14 = alloca double, align 8
  %15 = alloca double, align 8
  %16 = alloca ptr, align 8
  %17 = alloca ptr, align 8
  %18 = alloca double, align 8
  %19 = alloca double, align 8
  %20 = alloca double, align 8
  %21 = alloca double, align 8
  %22 = alloca double, align 8
  %23 = alloca double, align 8
  %24 = alloca double, align 8
  %25 = alloca double, align 8
  %26 = alloca double, align 8
  %27 = alloca i64, align 8
  %28 = alloca i32, align 4
  store double %0, ptr %6, align 8, !tbaa !11
  store ptr %1, ptr %7, align 8, !tbaa !15
  store ptr %2, ptr %8, align 8, !tbaa !15
  store ptr %3, ptr %9, align 8, !tbaa !17
  call void @llvm.lifetime.start.p0(i64 8, ptr %10) #8
  %29 = load ptr, ptr %9, align 8, !tbaa !17
  store ptr %29, ptr %10, align 8, !tbaa !17
  call void @llvm.lifetime.start.p0(i64 8, ptr %11) #8
  %30 = load ptr, ptr %10, align 8, !tbaa !17
  %31 = getelementptr inbounds nuw %struct.anon, ptr %30, i32 0, i32 0
  %32 = load i64, ptr %31, align 8, !tbaa !34
  store i64 %32, ptr %11, align 8, !tbaa !13
  call void @llvm.lifetime.start.p0(i64 8, ptr %12) #8
  %33 = load ptr, ptr %10, align 8, !tbaa !17
  %34 = getelementptr inbounds nuw %struct.anon, ptr %33, i32 0, i32 8
  %35 = load double, ptr %34, align 8, !tbaa !41
  store double %35, ptr %12, align 8, !tbaa !11
  call void @llvm.lifetime.start.p0(i64 8, ptr %13) #8
  %36 = load ptr, ptr %10, align 8, !tbaa !17
  %37 = getelementptr inbounds nuw %struct.anon, ptr %36, i32 0, i32 9
  %38 = load double, ptr %37, align 8, !tbaa !42
  store double %38, ptr %13, align 8, !tbaa !11
  call void @llvm.lifetime.start.p0(i64 8, ptr %14) #8
  %39 = load ptr, ptr %10, align 8, !tbaa !17
  %40 = getelementptr inbounds nuw %struct.anon, ptr %39, i32 0, i32 10
  %41 = load double, ptr %40, align 8, !tbaa !43
  store double %41, ptr %14, align 8, !tbaa !11
  call void @llvm.lifetime.start.p0(i64 8, ptr %15) #8
  %42 = load ptr, ptr %10, align 8, !tbaa !17
  %43 = getelementptr inbounds nuw %struct.anon, ptr %42, i32 0, i32 1
  %44 = load double, ptr %43, align 8, !tbaa !46
  store double %44, ptr %15, align 8, !tbaa !11
  call void @llvm.lifetime.start.p0(i64 8, ptr %16) #8
  store ptr null, ptr %16, align 8, !tbaa !28
  call void @llvm.lifetime.start.p0(i64 8, ptr %17) #8
  store ptr null, ptr %17, align 8, !tbaa !28
  call void @llvm.lifetime.start.p0(i64 8, ptr %18) #8
  call void @llvm.lifetime.start.p0(i64 8, ptr %19) #8
  call void @llvm.lifetime.start.p0(i64 8, ptr %20) #8
  call void @llvm.lifetime.start.p0(i64 8, ptr %21) #8
  call void @llvm.lifetime.start.p0(i64 8, ptr %22) #8
  call void @llvm.lifetime.start.p0(i64 8, ptr %23) #8
  call void @llvm.lifetime.start.p0(i64 8, ptr %24) #8
  call void @llvm.lifetime.start.p0(i64 8, ptr %25) #8
  call void @llvm.lifetime.start.p0(i64 8, ptr %26) #8
  call void @llvm.lifetime.start.p0(i64 8, ptr %27) #8
  %45 = load ptr, ptr %7, align 8, !tbaa !15
  %46 = call ptr @N_VGetArrayPointer(ptr noundef %45)
  store ptr %46, ptr %16, align 8, !tbaa !28
  %47 = load ptr, ptr %16, align 8, !tbaa !28
  %48 = call i32 @check_retval(ptr noundef %47, ptr noundef @.str.26, i32 noundef 0)
  %49 = icmp ne i32 %48, 0
  br i1 %49, label %50, label %51

50:                                               ; preds = %4
  store i32 1, ptr %5, align 4
  store i32 1, ptr %28, align 4
  br label %181

51:                                               ; preds = %4
  %52 = load ptr, ptr %8, align 8, !tbaa !15
  %53 = call ptr @N_VGetArrayPointer(ptr noundef %52)
  store ptr %53, ptr %17, align 8, !tbaa !28
  %54 = load ptr, ptr %17, align 8, !tbaa !28
  %55 = call i32 @check_retval(ptr noundef %54, ptr noundef @.str.26, i32 noundef 0)
  %56 = icmp ne i32 %55, 0
  br i1 %56, label %57, label %58

57:                                               ; preds = %51
  store i32 1, ptr %5, align 4
  store i32 1, ptr %28, align 4
  br label %181

58:                                               ; preds = %51
  %59 = load ptr, ptr %8, align 8, !tbaa !15
  call void @N_VConst(double noundef 0.000000e+00, ptr noundef %59)
  %60 = load double, ptr %12, align 8, !tbaa !11
  %61 = fneg double %60
  %62 = fdiv double %61, 2.000000e+00
  %63 = load double, ptr %15, align 8, !tbaa !11
  %64 = fdiv double %62, %63
  store double %64, ptr %18, align 8, !tbaa !11
  %65 = load double, ptr %13, align 8, !tbaa !11
  %66 = fneg double %65
  %67 = fdiv double %66, 2.000000e+00
  %68 = load double, ptr %15, align 8, !tbaa !11
  %69 = fdiv double %67, %68
  store double %69, ptr %19, align 8, !tbaa !11
  %70 = load double, ptr %14, align 8, !tbaa !11
  %71 = fneg double %70
  %72 = fdiv double %71, 2.000000e+00
  %73 = load double, ptr %15, align 8, !tbaa !11
  %74 = fdiv double %72, %73
  store double %74, ptr %20, align 8, !tbaa !11
  store i64 1, ptr %27, align 8, !tbaa !13
  br label %75

75:                                               ; preds = %153, %58
  %76 = load i64, ptr %27, align 8, !tbaa !13
  %77 = load i64, ptr %11, align 8, !tbaa !13
  %78 = sub nsw i64 %77, 1
  %79 = icmp slt i64 %76, %78
  br i1 %79, label %80, label %156

80:                                               ; preds = %75
  %81 = load ptr, ptr %16, align 8, !tbaa !28
  %82 = load i64, ptr %27, align 8, !tbaa !13
  %83 = sub nsw i64 %82, 1
  %84 = mul nsw i64 3, %83
  %85 = add nsw i64 %84, 0
  %86 = getelementptr inbounds double, ptr %81, i64 %85
  %87 = load double, ptr %86, align 8, !tbaa !11
  store double %87, ptr %21, align 8, !tbaa !11
  %88 = load ptr, ptr %16, align 8, !tbaa !28
  %89 = load i64, ptr %27, align 8, !tbaa !13
  %90 = add nsw i64 %89, 1
  %91 = mul nsw i64 3, %90
  %92 = add nsw i64 %91, 0
  %93 = getelementptr inbounds double, ptr %88, i64 %92
  %94 = load double, ptr %93, align 8, !tbaa !11
  store double %94, ptr %22, align 8, !tbaa !11
  %95 = load ptr, ptr %16, align 8, !tbaa !28
  %96 = load i64, ptr %27, align 8, !tbaa !13
  %97 = sub nsw i64 %96, 1
  %98 = mul nsw i64 3, %97
  %99 = add nsw i64 %98, 1
  %100 = getelementptr inbounds double, ptr %95, i64 %99
  %101 = load double, ptr %100, align 8, !tbaa !11
  store double %101, ptr %23, align 8, !tbaa !11
  %102 = load ptr, ptr %16, align 8, !tbaa !28
  %103 = load i64, ptr %27, align 8, !tbaa !13
  %104 = add nsw i64 %103, 1
  %105 = mul nsw i64 3, %104
  %106 = add nsw i64 %105, 1
  %107 = getelementptr inbounds double, ptr %102, i64 %106
  %108 = load double, ptr %107, align 8, !tbaa !11
  store double %108, ptr %24, align 8, !tbaa !11
  %109 = load ptr, ptr %16, align 8, !tbaa !28
  %110 = load i64, ptr %27, align 8, !tbaa !13
  %111 = sub nsw i64 %110, 1
  %112 = mul nsw i64 3, %111
  %113 = add nsw i64 %112, 2
  %114 = getelementptr inbounds double, ptr %109, i64 %113
  %115 = load double, ptr %114, align 8, !tbaa !11
  store double %115, ptr %25, align 8, !tbaa !11
  %116 = load ptr, ptr %16, align 8, !tbaa !28
  %117 = load i64, ptr %27, align 8, !tbaa !13
  %118 = add nsw i64 %117, 1
  %119 = mul nsw i64 3, %118
  %120 = add nsw i64 %119, 2
  %121 = getelementptr inbounds double, ptr %116, i64 %120
  %122 = load double, ptr %121, align 8, !tbaa !11
  store double %122, ptr %26, align 8, !tbaa !11
  %123 = load double, ptr %22, align 8, !tbaa !11
  %124 = load double, ptr %21, align 8, !tbaa !11
  %125 = fsub double %123, %124
  %126 = load double, ptr %18, align 8, !tbaa !11
  %127 = fmul double %125, %126
  %128 = load ptr, ptr %17, align 8, !tbaa !28
  %129 = load i64, ptr %27, align 8, !tbaa !13
  %130 = mul nsw i64 3, %129
  %131 = add nsw i64 %130, 0
  %132 = getelementptr inbounds double, ptr %128, i64 %131
  store double %127, ptr %132, align 8, !tbaa !11
  %133 = load double, ptr %24, align 8, !tbaa !11
  %134 = load double, ptr %23, align 8, !tbaa !11
  %135 = fsub double %133, %134
  %136 = load double, ptr %19, align 8, !tbaa !11
  %137 = fmul double %135, %136
  %138 = load ptr, ptr %17, align 8, !tbaa !28
  %139 = load i64, ptr %27, align 8, !tbaa !13
  %140 = mul nsw i64 3, %139
  %141 = add nsw i64 %140, 1
  %142 = getelementptr inbounds double, ptr %138, i64 %141
  store double %137, ptr %142, align 8, !tbaa !11
  %143 = load double, ptr %26, align 8, !tbaa !11
  %144 = load double, ptr %25, align 8, !tbaa !11
  %145 = fsub double %143, %144
  %146 = load double, ptr %20, align 8, !tbaa !11
  %147 = fmul double %145, %146
  %148 = load ptr, ptr %17, align 8, !tbaa !28
  %149 = load i64, ptr %27, align 8, !tbaa !13
  %150 = mul nsw i64 3, %149
  %151 = add nsw i64 %150, 2
  %152 = getelementptr inbounds double, ptr %148, i64 %151
  store double %147, ptr %152, align 8, !tbaa !11
  br label %153

153:                                              ; preds = %80
  %154 = load i64, ptr %27, align 8, !tbaa !13
  %155 = add nsw i64 %154, 1
  store i64 %155, ptr %27, align 8, !tbaa !13
  br label %75

156:                                              ; preds = %75
  %157 = load ptr, ptr %17, align 8, !tbaa !28
  %158 = getelementptr inbounds double, ptr %157, i64 2
  store double 0.000000e+00, ptr %158, align 8, !tbaa !11
  %159 = load ptr, ptr %17, align 8, !tbaa !28
  %160 = getelementptr inbounds double, ptr %159, i64 1
  store double 0.000000e+00, ptr %160, align 8, !tbaa !11
  %161 = load ptr, ptr %17, align 8, !tbaa !28
  %162 = getelementptr inbounds double, ptr %161, i64 0
  store double 0.000000e+00, ptr %162, align 8, !tbaa !11
  %163 = load ptr, ptr %17, align 8, !tbaa !28
  %164 = load i64, ptr %11, align 8, !tbaa !13
  %165 = sub nsw i64 %164, 1
  %166 = mul nsw i64 3, %165
  %167 = add nsw i64 %166, 2
  %168 = getelementptr inbounds double, ptr %163, i64 %167
  store double 0.000000e+00, ptr %168, align 8, !tbaa !11
  %169 = load ptr, ptr %17, align 8, !tbaa !28
  %170 = load i64, ptr %11, align 8, !tbaa !13
  %171 = sub nsw i64 %170, 1
  %172 = mul nsw i64 3, %171
  %173 = add nsw i64 %172, 1
  %174 = getelementptr inbounds double, ptr %169, i64 %173
  store double 0.000000e+00, ptr %174, align 8, !tbaa !11
  %175 = load ptr, ptr %17, align 8, !tbaa !28
  %176 = load i64, ptr %11, align 8, !tbaa !13
  %177 = sub nsw i64 %176, 1
  %178 = mul nsw i64 3, %177
  %179 = add nsw i64 %178, 0
  %180 = getelementptr inbounds double, ptr %175, i64 %179
  store double 0.000000e+00, ptr %180, align 8, !tbaa !11
  store i32 0, ptr %5, align 4
  store i32 1, ptr %28, align 4
  br label %181

181:                                              ; preds = %156, %57, %50
  call void @llvm.lifetime.end.p0(i64 8, ptr %27) #8
  call void @llvm.lifetime.end.p0(i64 8, ptr %26) #8
  call void @llvm.lifetime.end.p0(i64 8, ptr %25) #8
  call void @llvm.lifetime.end.p0(i64 8, ptr %24) #8
  call void @llvm.lifetime.end.p0(i64 8, ptr %23) #8
  call void @llvm.lifetime.end.p0(i64 8, ptr %22) #8
  call void @llvm.lifetime.end.p0(i64 8, ptr %21) #8
  call void @llvm.lifetime.end.p0(i64 8, ptr %20) #8
  call void @llvm.lifetime.end.p0(i64 8, ptr %19) #8
  call void @llvm.lifetime.end.p0(i64 8, ptr %18) #8
  call void @llvm.lifetime.end.p0(i64 8, ptr %17) #8
  call void @llvm.lifetime.end.p0(i64 8, ptr %16) #8
  call void @llvm.lifetime.end.p0(i64 8, ptr %15) #8
  call void @llvm.lifetime.end.p0(i64 8, ptr %14) #8
  call void @llvm.lifetime.end.p0(i64 8, ptr %13) #8
  call void @llvm.lifetime.end.p0(i64 8, ptr %12) #8
  call void @llvm.lifetime.end.p0(i64 8, ptr %11) #8
  call void @llvm.lifetime.end.p0(i64 8, ptr %10) #8
  %182 = load i32, ptr %5, align 4
  ret i32 %182
}