; Function Attrs: nounwind uwtable
define internal range(i32 0, 2) i32 @fse(double %0, ptr noundef %1, ptr noundef %2, ptr noundef readonly captures(none) %3) #0 {
  %5 = load i64, ptr %3, align 8, !tbaa !16
  %6 = getelementptr inbounds nuw i8, ptr %3, i64 64
  %7 = load double, ptr %6, align 8, !tbaa !25
  %8 = getelementptr inbounds nuw i8, ptr %3, i64 72
  %9 = load double, ptr %8, align 8, !tbaa !26
  %10 = getelementptr inbounds nuw i8, ptr %3, i64 80
  %11 = load double, ptr %10, align 8, !tbaa !27
  %12 = getelementptr inbounds nuw i8, ptr %3, i64 8
  %13 = load double, ptr %12, align 8, !tbaa !30
  %14 = tail call ptr @N_VGetArrayPointer(ptr noundef %1) #16
  %15 = icmp eq ptr %14, null
  br i1 %15, label %check_retval.exit, label %18

check_retval.exit:                                ; preds = %4
  %16 = load ptr, ptr @stderr, align 8, !tbaa !12
  %17 = tail call i32 (ptr, ptr, ...) @fprintf(ptr noundef %16, ptr noundef nonnull @.str.76, ptr noundef nonnull @.str.26) #17
  br label %57

18:                                               ; preds = %4
  %19 = tail call ptr @N_VGetArrayPointer(ptr noundef %2) #16
  %20 = icmp eq ptr %19, null
  br i1 %20, label %check_retval.exit60, label %23

check_retval.exit60:                              ; preds = %18
  %21 = load ptr, ptr @stderr, align 8, !tbaa !12
  %22 = tail call i32 (ptr, ptr, ...) @fprintf(ptr noundef %21, ptr noundef nonnull @.str.76, ptr noundef nonnull @.str.26) #17
  br label %57

23:                                               ; preds = %18
  tail call void @N_VConst(double noundef 0.000000e+00, ptr noundef %2) #16
  %24 = fmul double %7, -5.000000e-01
  %25 = fdiv double %24, %13
  %26 = fmul double %9, -5.000000e-01
  %27 = fdiv double %26, %13
  %28 = fmul double %11, -5.000000e-01
  %29 = fdiv double %28, %13
  %30 = add i64 %5, -1
  %31 = icmp sgt i64 %5, 2
  br i1 %31, label %.lr.ph, label %._crit_edge

.lr.ph:                                           ; preds = %23, %.lr.ph
  %.066 = phi i64 [ %36, %.lr.ph ], [ 1, %23 ]
  %32 = mul i64 %.066, 3
  %33 = getelementptr double, ptr %14, i64 %32
  %34 = getelementptr i8, ptr %33, i64 -24
  %35 = load double, ptr %34, align 8, !tbaa !31
  %36 = add nuw nsw i64 %.066, 1
  %.idx65 = mul nuw nsw i64 %36, 24
  %37 = getelementptr inbounds nuw i8, ptr %14, i64 %.idx65
  %38 = load double, ptr %37, align 8, !tbaa !31
  %39 = getelementptr i8, ptr %33, i64 -16
  %40 = load double, ptr %39, align 8, !tbaa !31
  %41 = getelementptr inbounds nuw i8, ptr %37, i64 8
  %42 = load double, ptr %41, align 8, !tbaa !31
  %43 = getelementptr i8, ptr %33, i64 -8
  %44 = load double, ptr %43, align 8, !tbaa !31
  %45 = getelementptr inbounds nuw i8, ptr %37, i64 16
  %46 = load double, ptr %45, align 8, !tbaa !31
  %47 = fsub double %38, %35
  %48 = fmul double %25, %47
  %49 = getelementptr inbounds nuw double, ptr %19, i64 %32
  store double %48, ptr %49, align 8, !tbaa !31
  %50 = fsub double %42, %40
  %51 = fmul double %27, %50
  %52 = getelementptr inbounds nuw i8, ptr %49, i64 8
  store double %51, ptr %52, align 8, !tbaa !31
  %53 = fsub double %46, %44
  %54 = fmul double %29, %53
  %55 = getelementptr inbounds nuw i8, ptr %49, i64 16
  store double %54, ptr %55, align 8, !tbaa !31
  %exitcond.not = icmp eq i64 %36, %30
  br i1 %exitcond.not, label %._crit_edge, label %.lr.ph

._crit_edge:                                      ; preds = %.lr.ph, %23
  %.idx = mul i64 %30, 24
  %56 = getelementptr i8, ptr %19, i64 %.idx
  tail call void @llvm.memset.p0.i64(ptr noundef nonnull align 8 dereferenceable(24) %19, i8 0, i64 24, i1 false)
  tail call void @llvm.memset.p0.i64(ptr noundef nonnull align 8 dereferenceable(24) %56, i8 0, i64 24, i1 false)
  br label %57

57:                                               ; preds = %check_retval.exit60, %check_retval.exit, %._crit_edge
  %.056 = phi i32 [ 0, %._crit_edge ], [ 1, %check_retval.exit ], [ 1, %check_retval.exit60 ]
  ret i32 %.056
}